	.file	"hello_m2.cpp"
	.text
.Ltext0:
	.type	_ZL4initiPPc, @function
_ZL4initiPPc:
.LFB0:
	.file 1 "hello_m2.cpp"
	.loc 1 64 0
	.cfi_startproc
	.cfi_personality 0x3,__gxx_personality_v0
	.cfi_lsda 0x3,.LLSDA0
	pushq	%rbp
.LCFI0:
	.cfi_def_cfa_offset 16
	.cfi_offset 6, -16
	movq	%rsp, %rbp
.LCFI1:
	.cfi_def_cfa_register 6
	pushq	%rbx
	subq	$24, %rsp
	.cfi_offset 3, -24
	movl	%edi, -20(%rbp)
	movq	%rsi, -32(%rbp)
	.loc 1 66 0
	movq	-32(%rbp), %rdx
	movl	-20(%rbp), %eax
	movq	%rdx, %rsi
	movl	%eax, %edi
.LEHB0:
	call	_M2_Storage_init
	.loc 1 67 0
	movq	-32(%rbp), %rdx
	movl	-20(%rbp), %eax
	movq	%rdx, %rsi
	movl	%eax, %edi
	call	_M2_SYSTEM_init
	.loc 1 68 0
	movq	-32(%rbp), %rdx
	movl	-20(%rbp), %eax
	movq	%rdx, %rsi
	movl	%eax, %edi
	call	_M2_M2RTS_init
	.loc 1 69 0
	movq	-32(%rbp), %rdx
	movl	-20(%rbp), %eax
	movq	%rdx, %rsi
	movl	%eax, %edi
	call	_M2_RTExceptions_init
	.loc 1 70 0
	movq	-32(%rbp), %rdx
	movl	-20(%rbp), %eax
	movq	%rdx, %rsi
	movl	%eax, %edi
	call	_M2_Sys_init
	.loc 1 71 0
	movq	-32(%rbp), %rdx
	movl	-20(%rbp), %eax
	movq	%rdx, %rsi
	movl	%eax, %edi
	call	_M2_SysWrite_init
	.loc 1 72 0
	movq	-32(%rbp), %rdx
	movl	-20(%rbp), %eax
	movq	%rdx, %rsi
	movl	%eax, %edi
	call	_M2_SysExit_init
	.loc 1 73 0
	movq	-32(%rbp), %rdx
	movl	-20(%rbp), %eax
	movq	%rdx, %rsi
	movl	%eax, %edi
	call	_M2_Errno_init
	.loc 1 74 0
	movq	-32(%rbp), %rdx
	movl	-20(%rbp), %eax
	movq	%rdx, %rsi
	movl	%eax, %edi
	call	_M2_SysPanic_init
	.loc 1 75 0
	movq	-32(%rbp), %rdx
	movl	-20(%rbp), %eax
	movq	%rdx, %rsi
	movl	%eax, %edi
	call	_M2_SystemTypes_init
	.loc 1 76 0
	movq	-32(%rbp), %rdx
	movl	-20(%rbp), %eax
	movq	%rdx, %rsi
	movl	%eax, %edi
	call	_M2_UnixString_init
	.loc 1 77 0
	movq	-32(%rbp), %rdx
	movl	-20(%rbp), %eax
	movq	%rdx, %rsi
	movl	%eax, %edi
	call	_M2_termios_init
	.loc 1 78 0
	movq	-32(%rbp), %rdx
	movl	-20(%rbp), %eax
	movq	%rdx, %rsi
	movl	%eax, %edi
	call	_M2_SysClose_init
	.loc 1 79 0
	movq	-32(%rbp), %rdx
	movl	-20(%rbp), %eax
	movq	%rdx, %rsi
	movl	%eax, %edi
	call	_M2_SysLseek_init
	.loc 1 80 0
	movq	-32(%rbp), %rdx
	movl	-20(%rbp), %eax
	movq	%rdx, %rsi
	movl	%eax, %edi
	call	_M2_SysTermIO_init
	.loc 1 81 0
	movq	-32(%rbp), %rdx
	movl	-20(%rbp), %eax
	movq	%rdx, %rsi
	movl	%eax, %edi
	call	_M2_SysCreat_init
	.loc 1 82 0
	movq	-32(%rbp), %rdx
	movl	-20(%rbp), %eax
	movq	%rdx, %rsi
	movl	%eax, %edi
	call	_M2_SysOpen_init
	.loc 1 83 0
	movq	-32(%rbp), %rdx
	movl	-20(%rbp), %eax
	movq	%rdx, %rsi
	movl	%eax, %edi
	call	_M2_SysRead_init
	.loc 1 84 0
	movq	-32(%rbp), %rdx
	movl	-20(%rbp), %eax
	movq	%rdx, %rsi
	movl	%eax, %edi
	call	_M2_M2EXCEPTION_init
	.loc 1 85 0
	movq	-32(%rbp), %rdx
	movl	-20(%rbp), %eax
	movq	%rdx, %rsi
	movl	%eax, %edi
	call	_M2_StdIO_init
	.loc 1 86 0
	movq	-32(%rbp), %rdx
	movl	-20(%rbp), %eax
	movq	%rdx, %rsi
	movl	%eax, %edi
	call	_M2_ASCII_init
	.loc 1 87 0
	movq	-32(%rbp), %rdx
	movl	-20(%rbp), %eax
	movq	%rdx, %rsi
	movl	%eax, %edi
	call	_M2_Strings_init
	.loc 1 88 0
	movq	-32(%rbp), %rdx
	movl	-20(%rbp), %eax
	movq	%rdx, %rsi
	movl	%eax, %edi
	call	_M2_ReadIntCard_init
	.loc 1 89 0
	movq	-32(%rbp), %rdx
	movl	-20(%rbp), %eax
	movq	%rdx, %rsi
	movl	%eax, %edi
	call	_M2_Terminal_init
	.loc 1 90 0
	movq	-32(%rbp), %rdx
	movl	-20(%rbp), %eax
	movq	%rdx, %rsi
	movl	%eax, %edi
	call	_M2_Conversions_init
	.loc 1 91 0
	movq	-32(%rbp), %rdx
	movl	-20(%rbp), %eax
	movq	%rdx, %rsi
	movl	%eax, %edi
	call	_M2_InOut_init
	.loc 1 92 0
	call	M2RTS_ExecuteInitialProcedures
	.loc 1 93 0
	movq	-32(%rbp), %rdx
	movl	-20(%rbp), %eax
	movq	%rdx, %rsi
	movl	%eax, %edi
	call	_M2_hello_init
.LEHE0:
	.loc 1 98 0
	jmp	.L7
.L6:
	movq	%rax, %rbx
	.loc 1 95 0
	call	__cxa_end_catch
	movq	%rbx, %rax
	movq	%rax, %rdi
.LEHB1:
	call	_Unwind_Resume
.LEHE1:
.L5:
	movq	%rax, %rdi
	call	__cxa_begin_catch
.LEHB2:
	.loc 1 96 0
	call	RTExceptions_DefaultErrorCatch
.LEHE2:
.LEHB3:
	.loc 1 95 0
	call	__cxa_end_catch
.LEHE3:
.L7:
	.loc 1 98 0
	nop
.L1:
	addq	$24, %rsp
	popq	%rbx
	popq	%rbp
.LCFI2:
	.cfi_def_cfa 7, 8
	ret
	.cfi_endproc
.LFE0:
	.globl	__gxx_personality_v0
	.section	.gcc_except_table,"a",@progbits
	.align 4
.LLSDA0:
	.byte	0xff
	.byte	0x3
	.uleb128 .LLSDATT0-.LLSDATTD0
.LLSDATTD0:
	.byte	0x1
	.uleb128 .LLSDACSE0-.LLSDACSB0
.LLSDACSB0:
	.uleb128 .LEHB0-.LFB0
	.uleb128 .LEHE0-.LEHB0
	.uleb128 .L5-.LFB0
	.uleb128 0x1
	.uleb128 .LEHB1-.LFB0
	.uleb128 .LEHE1-.LEHB1
	.uleb128 0
	.uleb128 0
	.uleb128 .LEHB2-.LFB0
	.uleb128 .LEHE2-.LEHB2
	.uleb128 .L6-.LFB0
	.uleb128 0
	.uleb128 .LEHB3-.LFB0
	.uleb128 .LEHE3-.LEHB3
	.uleb128 0
	.uleb128 0
.LLSDACSE0:
	.byte	0x1
	.byte	0
	.align 4
	.long	0

.LLSDATT0:
	.text
	.size	_ZL4initiPPc, .-_ZL4initiPPc
	.type	_ZL6finishv, @function
_ZL6finishv:
.LFB1:
	.loc 1 101 0
	.cfi_startproc
	.cfi_personality 0x3,__gxx_personality_v0
	.cfi_lsda 0x3,.LLSDA1
	pushq	%rbp
.LCFI3:
	.cfi_def_cfa_offset 16
	.cfi_offset 6, -16
	movq	%rsp, %rbp
.LCFI4:
	.cfi_def_cfa_register 6
	pushq	%rbx
	subq	$8, %rsp
	.cfi_offset 3, -24
.LEHB4:
	.loc 1 103 0
	call	M2RTS_ExecuteTerminationProcedures
	.loc 1 104 0
	call	_M2_hello_finish
	.loc 1 105 0
	call	_M2_InOut_finish
	.loc 1 106 0
	call	_M2_Conversions_finish
	.loc 1 107 0
	call	_M2_Terminal_finish
	.loc 1 108 0
	call	_M2_ReadIntCard_finish
	.loc 1 109 0
	call	_M2_Strings_finish
	.loc 1 110 0
	call	_M2_ASCII_finish
	.loc 1 111 0
	call	_M2_StdIO_finish
	.loc 1 112 0
	call	_M2_M2EXCEPTION_finish
	.loc 1 113 0
	call	_M2_SysRead_finish
	.loc 1 114 0
	call	_M2_SysOpen_finish
	.loc 1 115 0
	call	_M2_SysCreat_finish
	.loc 1 116 0
	call	_M2_SysTermIO_finish
	.loc 1 117 0
	call	_M2_SysLseek_finish
	.loc 1 118 0
	call	_M2_SysClose_finish
	.loc 1 119 0
	call	_M2_termios_finish
	.loc 1 120 0
	call	_M2_UnixString_finish
	.loc 1 121 0
	call	_M2_SystemTypes_finish
	.loc 1 122 0
	call	_M2_SysPanic_finish
	.loc 1 123 0
	call	_M2_Errno_finish
	.loc 1 124 0
	call	_M2_SysExit_finish
	.loc 1 125 0
	call	_M2_SysWrite_finish
	.loc 1 126 0
	call	_M2_Sys_finish
	.loc 1 127 0
	call	_M2_RTExceptions_finish
	.loc 1 128 0
	call	_M2_M2RTS_finish
	.loc 1 129 0
	call	_M2_SYSTEM_finish
	.loc 1 130 0
	call	_M2_Storage_finish
.LEHE4:
	.loc 1 131 0
	movl	$0, %edi
	call	exit
.L12:
	movq	%rax, %rbx
	.loc 1 133 0
	call	__cxa_end_catch
	movq	%rbx, %rax
	movq	%rax, %rdi
.LEHB5:
	call	_Unwind_Resume
.LEHE5:
.L11:
	movq	%rax, %rdi
	call	__cxa_begin_catch
.LEHB6:
	.loc 1 134 0
	call	RTExceptions_DefaultErrorCatch
.LEHE6:
.LEHB7:
	.loc 1 133 0
	call	__cxa_end_catch
.LEHE7:
	.loc 1 136 0
	addq	$8, %rsp
	popq	%rbx
	popq	%rbp
.LCFI5:
	.cfi_def_cfa 7, 8
	ret
	.cfi_endproc
.LFE1:
	.section	.gcc_except_table
	.align 4
.LLSDA1:
	.byte	0xff
	.byte	0x3
	.uleb128 .LLSDATT1-.LLSDATTD1
.LLSDATTD1:
	.byte	0x1
	.uleb128 .LLSDACSE1-.LLSDACSB1
.LLSDACSB1:
	.uleb128 .LEHB4-.LFB1
	.uleb128 .LEHE4-.LEHB4
	.uleb128 .L11-.LFB1
	.uleb128 0x1
	.uleb128 .LEHB5-.LFB1
	.uleb128 .LEHE5-.LEHB5
	.uleb128 0
	.uleb128 0
	.uleb128 .LEHB6-.LFB1
	.uleb128 .LEHE6-.LEHB6
	.uleb128 .L12-.LFB1
	.uleb128 0
	.uleb128 .LEHB7-.LFB1
	.uleb128 .LEHE7-.LEHB7
	.uleb128 0
	.uleb128 0
.LLSDACSE1:
	.byte	0x1
	.byte	0
	.align 4
	.long	0

.LLSDATT1:
	.text
	.size	_ZL6finishv, .-_ZL6finishv
	.globl	main
	.type	main, @function
main:
.LFB2:
	.loc 1 139 0
	.cfi_startproc
	pushq	%rbp
.LCFI6:
	.cfi_def_cfa_offset 16
	.cfi_offset 6, -16
	movq	%rsp, %rbp
.LCFI7:
	.cfi_def_cfa_register 6
	subq	$16, %rsp
	movl	%edi, -4(%rbp)
	movq	%rsi, -16(%rbp)
	.loc 1 140 0
	movq	-16(%rbp), %rdx
	movl	-4(%rbp), %eax
	movq	%rdx, %rsi
	movl	%eax, %edi
	call	_ZL4initiPPc
	.loc 1 141 0
	call	_ZL6finishv
	.loc 1 142 0
	movl	$0, %eax
	.loc 1 143 0
	leave
.LCFI8:
	.cfi_def_cfa 7, 8
	ret
	.cfi_endproc
.LFE2:
	.size	main, .-main
.Letext0:
	.section	.note.GNU-stack,"",@progbits
